; Function Attrs: mustprogress nofree norecurse nosync nounwind willreturn memory(argmem: readwrite) uwtable
define void @_ZN4YAML6detail9node_data12mark_definedEv(ptr nocapture noundef nonnull align 8 dereferenceable(176) %this) local_unnamed_addr #5 align 2 {
entry:
  %m_type = getelementptr inbounds i8, ptr %this, i64 16
  %0 = load i32, ptr %m_type, align 8
  %cmp = icmp eq i32 %0, 0
  br i1 %cmp, label %if.then, label %if.end

if.then:                                          ; preds = %entry
  store i32 1, ptr %m_type, align 8
  br label %if.end

if.end:                                           ; preds = %if.then, %entry
  store i8 1, ptr %this, align 8
  ret void
}